; Function Attrs: mustprogress uwtable
define noundef zeroext i1 @_ZN22MLThreadSafeMemoryInfo27isAdditionalMemoryAvailableEl(ptr noundef nonnull align 8 dereferenceable(32) %0, i64 noundef %1) unnamed_addr #1 align 2 personality ptr @__gxx_personality_v0 {
  %3 = getelementptr inbounds i8, ptr %0, i64 24
  tail call void @_ZN14QReadWriteLock11lockForReadEv(ptr noundef nonnull align 8 dereferenceable(8) %3)
  %4 = getelementptr inbounds i8, ptr %0, i64 16
  %5 = load i64, ptr %4, align 8
  invoke void @_ZN14QReadWriteLock6unlockEv(ptr noundef nonnull align 8 dereferenceable(8) %3)
          to label %_ZN11QReadLockerD2Ev.exit unwind label %6

6:                                                ; preds = %2
  %7 = landingpad { ptr, i32 }
          catch ptr null
  %8 = extractvalue { ptr, i32 } %7, 0
  tail call void @__clang_call_terminate(ptr %8) #8
  unreachable

_ZN11QReadLockerD2Ev.exit:                        ; preds = %2
  %9 = icmp sge i64 %5, %1
  ret i1 %9
}